target datalayout = "e-m:e-p270:32:32-p271:32:32-p272:64:64-i64:64-i128:128-f80:128-n8:16:32:64-S128"
target triple = "x86_64-unknown-linux-gnu"

%"class.std::__shared_count" = type { ptr }
%"struct.rocksdb::AdvancedColumnFamilyOptions" = type { i32, i32, i32, i64, i8, i64, double, ptr, double, i8, i64, %"class.std::shared_ptr", i32, i64, %"class.std::vector", i32, i32, i32, i64, i32, i8, i8, double, %"class.std::vector.0", i64, i8, i64, i64, i8, i8, [2 x i8], %"class.rocksdb::CompactionOptionsUniversal", %"struct.rocksdb::CompactionOptionsFIFO", i64, %"class.std::shared_ptr.10", %"class.std::vector.13", i64, i8, i8, i8, i8, i8, i64, i64, i64, i8, i8, i8, i64, i64, i8, i64, i64, i8, i8, double, double, i64, i32, %"class.std::shared_ptr.18", i8, i32, i8, i8, i32 }
%"class.std::shared_ptr" = type { %"class.std::__shared_ptr" }
%"class.std::__shared_ptr" = type { ptr, %"class.std::__shared_count" }
%"class.std::vector" = type { %"struct.std::_Vector_base" }
%"struct.std::_Vector_base" = type { %"struct.std::_Vector_base<rocksdb::CompressionType, std::allocator<rocksdb::CompressionType>>::_Vector_impl" }
%"struct.std::_Vector_base<rocksdb::CompressionType, std::allocator<rocksdb::CompressionType>>::_Vector_impl" = type { %"struct.std::_Vector_base<rocksdb::CompressionType, std::allocator<rocksdb::CompressionType>>::_Vector_impl_data" }
%"struct.std::_Vector_base<rocksdb::CompressionType, std::allocator<rocksdb::CompressionType>>::_Vector_impl_data" = type { ptr, ptr, ptr }
%"class.std::vector.0" = type { %"struct.std::_Vector_base.1" }
%"struct.std::_Vector_base.1" = type { %"struct.std::_Vector_base<int, std::allocator<int>>::_Vector_impl" }
%"struct.std::_Vector_base<int, std::allocator<int>>::_Vector_impl" = type { %"struct.std::_Vector_base<int, std::allocator<int>>::_Vector_impl_data" }
%"struct.std::_Vector_base<int, std::allocator<int>>::_Vector_impl_data" = type { ptr, ptr, ptr }
%"class.rocksdb::CompactionOptionsUniversal" = type <{ i32, i32, i32, i32, i32, i32, i8, i8, [2 x i8] }>
%"struct.rocksdb::CompactionOptionsFIFO" = type { i64, i8, i64, %"class.std::vector.5" }
%"class.std::vector.5" = type { %"struct.std::_Vector_base.6" }
%"struct.std::_Vector_base.6" = type { %"struct.std::_Vector_base<rocksdb::FileTemperatureAge, std::allocator<rocksdb::FileTemperatureAge>>::_Vector_impl" }
%"struct.std::_Vector_base<rocksdb::FileTemperatureAge, std::allocator<rocksdb::FileTemperatureAge>>::_Vector_impl" = type { %"struct.std::_Vector_base<rocksdb::FileTemperatureAge, std::allocator<rocksdb::FileTemperatureAge>>::_Vector_impl_data" }
%"struct.std::_Vector_base<rocksdb::FileTemperatureAge, std::allocator<rocksdb::FileTemperatureAge>>::_Vector_impl_data" = type { ptr, ptr, ptr }
%"class.std::shared_ptr.10" = type { %"class.std::__shared_ptr.11" }
%"class.std::__shared_ptr.11" = type { ptr, %"class.std::__shared_count" }
%"class.std::vector.13" = type { %"struct.std::_Vector_base.14" }
%"struct.std::_Vector_base.14" = type { %"struct.std::_Vector_base<std::shared_ptr<rocksdb::TablePropertiesCollectorFactory>, std::allocator<std::shared_ptr<rocksdb::TablePropertiesCollectorFactory>>>::_Vector_impl" }
%"struct.std::_Vector_base<std::shared_ptr<rocksdb::TablePropertiesCollectorFactory>, std::allocator<std::shared_ptr<rocksdb::TablePropertiesCollectorFactory>>>::_Vector_impl" = type { %"struct.std::_Vector_base<std::shared_ptr<rocksdb::TablePropertiesCollectorFactory>, std::allocator<std::shared_ptr<rocksdb::TablePropertiesCollectorFactory>>>::_Vector_impl_data" }
%"struct.std::_Vector_base<std::shared_ptr<rocksdb::TablePropertiesCollectorFactory>, std::allocator<std::shared_ptr<rocksdb::TablePropertiesCollectorFactory>>>::_Vector_impl_data" = type { ptr, ptr, ptr }
%"class.std::shared_ptr.18" = type { %"class.std::__shared_ptr.19" }
%"class.std::__shared_ptr.19" = type { ptr, %"class.std::__shared_count" }
%"struct.rocksdb::ColumnFamilyOptions" = type <{ %"struct.rocksdb::AdvancedColumnFamilyOptions", ptr, %"class.std::shared_ptr.63", ptr, %"class.std::shared_ptr.66", i64, i8, i8, [6 x i8], %"struct.rocksdb::CompressionOptions", %"struct.rocksdb::CompressionOptions", i32, [4 x i8], %"class.std::shared_ptr", i64, i64, i8, [7 x i8], %"class.std::shared_ptr.69", %"class.std::vector.41", %"class.std::shared_ptr.72", %"class.std::shared_ptr.75", i32, [4 x i8] }>
%"class.std::shared_ptr.63" = type { %"class.std::__shared_ptr.64" }
%"class.std::__shared_ptr.64" = type { ptr, %"class.std::__shared_count" }
%"class.std::shared_ptr.66" = type { %"class.std::__shared_ptr.67" }
%"class.std::__shared_ptr.67" = type { ptr, %"class.std::__shared_count" }
%"struct.rocksdb::CompressionOptions" = type <{ i32, i32, i32, i32, i32, i32, i8, [7 x i8], i64, i8, [3 x i8], i32, i8, [7 x i8] }>
%"class.std::shared_ptr.69" = type { %"class.std::__shared_ptr.70" }
%"class.std::__shared_ptr.70" = type { ptr, %"class.std::__shared_count" }
%"class.std::vector.41" = type { %"struct.std::_Vector_base.42" }
%"struct.std::_Vector_base.42" = type { %"struct.std::_Vector_base<rocksdb::DbPath, std::allocator<rocksdb::DbPath>>::_Vector_impl" }
%"struct.std::_Vector_base<rocksdb::DbPath, std::allocator<rocksdb::DbPath>>::_Vector_impl" = type { %"struct.std::_Vector_base<rocksdb::DbPath, std::allocator<rocksdb::DbPath>>::_Vector_impl_data" }
%"struct.std::_Vector_base<rocksdb::DbPath, std::allocator<rocksdb::DbPath>>::_Vector_impl_data" = type { ptr, ptr, ptr }
%"class.std::shared_ptr.72" = type { %"class.std::__shared_ptr.73" }
%"class.std::__shared_ptr.73" = type { ptr, %"class.std::__shared_count" }
%"class.std::shared_ptr.75" = type { %"class.std::__shared_ptr.76" }
%"class.std::__shared_ptr.76" = type { ptr, %"class.std::__shared_count" }

; Function Attrs: mustprogress nounwind uwtable
define linkonce_odr noundef zeroext i1 @_ZN7rocksdb16Snappy_SupportedEv() #1 comdat {
entry:
  ret i1 true
}

; Function Attrs: mustprogress nounwind uwtable
define linkonce_odr noundef zeroext i1 @_ZN7rocksdb13LZ4_SupportedEv() #1 comdat {
entry:
  ret i1 true
}

; Function Attrs: mustprogress nounwind uwtable
define linkonce_odr noundef nonnull align 1 dereferenceable(1) ptr @_ZNSt6vectorIN7rocksdb15CompressionTypeESaIS1_EEixEm(ptr noundef nonnull align 8 dereferenceable(24) %this, i64 noundef %__n) #1 comdat align 2 {
entry:
  %this.addr = alloca ptr, align 8
  %__n.addr = alloca i64, align 8
  store ptr %this, ptr %this.addr, align 8
  store i64 %__n, ptr %__n.addr, align 8
  %this1 = load ptr, ptr %this.addr, align 8
  %_M_impl = getelementptr inbounds %"struct.std::_Vector_base", ptr %this1, i32 0, i32 0
  %_M_start = getelementptr inbounds %"struct.std::_Vector_base<rocksdb::CompressionType, std::allocator<rocksdb::CompressionType>>::_Vector_impl_data", ptr %_M_impl, i32 0, i32 0
  %0 = load ptr, ptr %_M_start, align 8
  %1 = load i64, ptr %__n.addr, align 8
  %add.ptr = getelementptr inbounds i8, ptr %0, i64 %1
  ret ptr %add.ptr
}

; Function Attrs: mustprogress uwtable
define noundef ptr @_ZN7rocksdb19ColumnFamilyOptions28OptimizeLevelStyleCompactionEm(ptr noundef nonnull align 8 dereferenceable(820) %this, i64 noundef %memtable_memory_budget) #0 align 2 {
entry:
  %this.addr = alloca ptr, align 8
  %memtable_memory_budget.addr = alloca i64, align 8
  %i = alloca i32, align 4
  store ptr %this, ptr %this.addr, align 8
  store i64 %memtable_memory_budget, ptr %memtable_memory_budget.addr, align 8
  %this1 = load ptr, ptr %this.addr, align 8
  %0 = load i64, ptr %memtable_memory_budget.addr, align 8
  %div = udiv i64 %0, 4
  %write_buffer_size = getelementptr inbounds %"struct.rocksdb::ColumnFamilyOptions", ptr %this1, i32 0, i32 5
  store i64 %div, ptr %write_buffer_size, align 8
  %min_write_buffer_number_to_merge = getelementptr inbounds %"struct.rocksdb::AdvancedColumnFamilyOptions", ptr %this1, i32 0, i32 1
  store i32 2, ptr %min_write_buffer_number_to_merge, align 4
  %max_write_buffer_number = getelementptr inbounds %"struct.rocksdb::AdvancedColumnFamilyOptions", ptr %this1, i32 0, i32 0
  store i32 6, ptr %max_write_buffer_number, align 8
  %level0_file_num_compaction_trigger = getelementptr inbounds %"struct.rocksdb::ColumnFamilyOptions", ptr %this1, i32 0, i32 11
  store i32 2, ptr %level0_file_num_compaction_trigger, align 8
  %1 = load i64, ptr %memtable_memory_budget.addr, align 8
  %div2 = udiv i64 %1, 8
  %target_file_size_base = getelementptr inbounds %"struct.rocksdb::AdvancedColumnFamilyOptions", ptr %this1, i32 0, i32 18
  store i64 %div2, ptr %target_file_size_base, align 8
  %2 = load i64, ptr %memtable_memory_budget.addr, align 8
  %max_bytes_for_level_base = getelementptr inbounds %"struct.rocksdb::ColumnFamilyOptions", ptr %this1, i32 0, i32 14
  store i64 %2, ptr %max_bytes_for_level_base, align 8
  %compaction_style = getelementptr inbounds %"struct.rocksdb::AdvancedColumnFamilyOptions", ptr %this1, i32 0, i32 28
  store i8 0, ptr %compaction_style, align 8
  %compression_per_level = getelementptr inbounds %"struct.rocksdb::AdvancedColumnFamilyOptions", ptr %this1, i32 0, i32 14
  %num_levels = getelementptr inbounds %"struct.rocksdb::AdvancedColumnFamilyOptions", ptr %this1, i32 0, i32 15
  %3 = load i32, ptr %num_levels, align 8
  %conv = sext i32 %3 to i64
  call void @_ZNSt6vectorIN7rocksdb15CompressionTypeESaIS1_EE6resizeEm(ptr noundef nonnull align 8 dereferenceable(24) %compression_per_level, i64 noundef %conv)
  store i32 0, ptr %i, align 4
  br label %for.cond

for.cond:                                         ; preds = %for.inc, %entry
  %4 = load i32, ptr %i, align 4
  %num_levels3 = getelementptr inbounds %"struct.rocksdb::AdvancedColumnFamilyOptions", ptr %this1, i32 0, i32 15
  %5 = load i32, ptr %num_levels3, align 8
  %cmp = icmp slt i32 %4, %5
  br i1 %cmp, label %for.body, label %for.end

for.body:                                         ; preds = %for.cond
  %6 = load i32, ptr %i, align 4
  %cmp4 = icmp slt i32 %6, 2
  br i1 %cmp4, label %if.then, label %if.else

if.then:                                          ; preds = %for.body
  %compression_per_level5 = getelementptr inbounds %"struct.rocksdb::AdvancedColumnFamilyOptions", ptr %this1, i32 0, i32 14
  %7 = load i32, ptr %i, align 4
  %conv6 = sext i32 %7 to i64
  %call = call noundef nonnull align 1 dereferenceable(1) ptr @_ZNSt6vectorIN7rocksdb15CompressionTypeESaIS1_EEixEm(ptr noundef nonnull align 8 dereferenceable(24) %compression_per_level5, i64 noundef %conv6) #11
  store i8 0, ptr %call, align 1
  br label %if.end

if.else:                                          ; preds = %for.body
  %call7 = call noundef zeroext i1 @_ZN7rocksdb13LZ4_SupportedEv()
  br i1 %call7, label %cond.true, label %cond.false

cond.true:                                        ; preds = %if.else
  br label %cond.end

cond.false:                                       ; preds = %if.else
  %call8 = call noundef zeroext i1 @_ZN7rocksdb16Snappy_SupportedEv()
  %cond = select i1 %call8, i8 1, i8 0
  br label %cond.end

cond.end:                                         ; preds = %cond.false, %cond.true
  %cond9 = phi i8 [ 4, %cond.true ], [ %cond, %cond.false ]
  %compression_per_level10 = getelementptr inbounds %"struct.rocksdb::AdvancedColumnFamilyOptions", ptr %this1, i32 0, i32 14
  %8 = load i32, ptr %i, align 4
  %conv11 = sext i32 %8 to i64
  %call12 = call noundef nonnull align 1 dereferenceable(1) ptr @_ZNSt6vectorIN7rocksdb15CompressionTypeESaIS1_EEixEm(ptr noundef nonnull align 8 dereferenceable(24) %compression_per_level10, i64 noundef %conv11) #11
  store i8 %cond9, ptr %call12, align 1
  br label %if.end

if.end:                                           ; preds = %cond.end, %if.then
  br label %for.inc

for.inc:                                          ; preds = %if.end
  %9 = load i32, ptr %i, align 4
  %inc = add nsw i32 %9, 1
  store i32 %inc, ptr %i, align 4
  br label %for.cond, !llvm.loop !7

for.end:                                          ; preds = %for.cond
  ret ptr %this1
}