; Function Attrs: mustprogress uwtable
define noundef nonnull ptr @_ZN7rocksdb19ColumnFamilyOptions28OptimizeLevelStyleCompactionEm(ptr noundef nonnull returned align 8 dereferenceable(820) %this, i64 noundef %memtable_memory_budget) local_unnamed_addr #0 align 2 {
entry:
  %div7 = lshr i64 %memtable_memory_budget, 2
  %write_buffer_size = getelementptr inbounds i8, ptr %this, i64 568
  store i64 %div7, ptr %write_buffer_size, align 8
  %min_write_buffer_number_to_merge = getelementptr inbounds i8, ptr %this, i64 4
  store i32 2, ptr %min_write_buffer_number_to_merge, align 4
  store i32 6, ptr %this, align 8
  %level0_file_num_compaction_trigger = getelementptr inbounds i8, ptr %this, i64 696
  store i32 2, ptr %level0_file_num_compaction_trigger, align 8
  %div28 = lshr i64 %memtable_memory_budget, 3
  %target_file_size_base = getelementptr inbounds i8, ptr %this, i64 152
  store i64 %div28, ptr %target_file_size_base, align 8
  %max_bytes_for_level_base = getelementptr inbounds i8, ptr %this, i64 720
  store i64 %memtable_memory_budget, ptr %max_bytes_for_level_base, align 8
  %compaction_style = getelementptr inbounds i8, ptr %this, i64 232
  store i8 0, ptr %compaction_style, align 8
  %compression_per_level = getelementptr inbounds i8, ptr %this, i64 112
  %num_levels = getelementptr inbounds i8, ptr %this, i64 136
  %0 = load i32, ptr %num_levels, align 8
  %conv = sext i32 %0 to i64
  tail call void @_ZNSt6vectorIN7rocksdb15CompressionTypeESaIS1_EE6resizeEm(ptr noundef nonnull align 8 dereferenceable(24) %compression_per_level, i64 noundef %conv)
  %1 = load i32, ptr %num_levels, align 8
  %cmp10 = icmp sgt i32 %1, 0
  br i1 %cmp10, label %for.body, label %for.end

for.body:                                         ; preds = %entry, %for.body
  %indvars.iv = phi i64 [ %indvars.iv.next, %for.body ], [ 0, %entry ]
  %cmp4 = icmp ult i64 %indvars.iv, 2
  %2 = load ptr, ptr %compression_per_level, align 8
  %add.ptr.i = getelementptr inbounds i8, ptr %2, i64 %indvars.iv
  %. = select i1 %cmp4, i8 0, i8 4
  store i8 %., ptr %add.ptr.i, align 1
  %indvars.iv.next = add nuw nsw i64 %indvars.iv, 1
  %3 = load i32, ptr %num_levels, align 8
  %4 = sext i32 %3 to i64
  %cmp = icmp slt i64 %indvars.iv.next, %4
  br i1 %cmp, label %for.body, label %for.end, !llvm.loop !29

for.end:                                          ; preds = %for.body, %entry
  ret ptr %this
}